; ModuleID = '30/2850.c'
source_filename = "30/2850.c"
target datalayout = "e-m:e-p270:32:32-p271:32:32-p272:64:64-i64:64-f80:128-n8:16:32:64-S128"
target triple = "x86_64-pc-linux-gnu"

@.str = private unnamed_addr constant [3 x i8] c"%d\00", align 1

; Function Attrs: noinline nounwind uwtable
define dso_local i32 @yuqiwuguan(i32 %0) #0 {
  %2 = alloca i32, align 4
  %3 = alloca i32, align 4
  %4 = alloca i32, align 4
  store i32 %0, i32* %3, align 4
  %5 = load i32, i32* %3, align 4
  %6 = srem i32 %5, 7
  %7 = icmp eq i32 %6, 0
  br i1 %7, label %8, label %9

8:                                                ; preds = %1
  store i32 0, i32* %2, align 4
  br label %24

9:                                                ; preds = %1
  %10 = load i32, i32* %3, align 4
  store i32 %10, i32* %4, align 4
  br label %11

11:                                               ; preds = %20, %9
  %12 = load i32, i32* %4, align 4
  %13 = icmp sgt i32 %12, 0
  br i1 %13, label %14, label %23

14:                                               ; preds = %11
  %15 = load i32, i32* %4, align 4
  %16 = srem i32 %15, 10
  %17 = icmp eq i32 %16, 7
  br i1 %17, label %18, label %19

18:                                               ; preds = %14
  store i32 0, i32* %2, align 4
  br label %24

19:                                               ; preds = %14
  br label %20

20:                                               ; preds = %19
  %21 = load i32, i32* %4, align 4
  %22 = sdiv i32 %21, 10
  store i32 %22, i32* %4, align 4
  br label %11

23:                                               ; preds = %11
  store i32 1, i32* %2, align 4
  br label %24

24:                                               ; preds = %23, %18, %8
  %25 = load i32, i32* %2, align 4
  ret i32 %25
}

; Function Attrs: noinline nounwind uwtable
define dso_local i32 @main() #0 {
  %1 = alloca i32, align 4
  %2 = alloca i32, align 4
  %3 = alloca i32, align 4
  %4 = alloca i32, align 4
  store i32 0, i32* %1, align 4
  store i32 0, i32* %3, align 4
  %5 = call i32 (i8*, ...) @__isoc99_scanf(i8* getelementptr inbounds ([3 x i8], [3 x i8]* @.str, i64 0, i64 0), i32* %4)
  store i32 1, i32* %2, align 4
  br label %6

6:                                                ; preds = %21, %0
  %7 = load i32, i32* %2, align 4
  %8 = load i32, i32* %4, align 4
  %9 = icmp sle i32 %7, %8
  br i1 %9, label %10, label %24

10:                                               ; preds = %6
  %11 = load i32, i32* %2, align 4
  %12 = call i32 @yuqiwuguan(i32 %11)
  %13 = icmp ne i32 %12, 0
  br i1 %13, label %14, label %20

14:                                               ; preds = %10
  %15 = load i32, i32* %3, align 4
  %16 = load i32, i32* %2, align 4
  %17 = load i32, i32* %2, align 4
  %18 = mul nsw i32 %16, %17
  %19 = add nsw i32 %15, %18
  store i32 %19, i32* %3, align 4
  br label %20

20:                                               ; preds = %14, %10
  br label %21

21:                                               ; preds = %20
  %22 = load i32, i32* %2, align 4
  %23 = add nsw i32 %22, 1
  store i32 %23, i32* %2, align 4
  br label %6

24:                                               ; preds = %6
  %25 = load i32, i32* %3, align 4
  %26 = call i32 (i8*, ...) @printf(i8* getelementptr inbounds ([3 x i8], [3 x i8]* @.str, i64 0, i64 0), i32 %25)
  ret i32 0
}

declare dso_local i32 @__isoc99_scanf(i8*, ...) #1

declare dso_local i32 @printf(i8*, ...) #1


!llvm.module.flags = !{!0}
!llvm.ident = !{!1}

!0 = !{i32 1, !"wchar_size", i32 4}
!1 = !{!"clang version 10.0.0-4ubuntu1 "}
